target datalayout = "e-m:e-p270:32:32-p271:32:32-p272:64:64-i64:64-i128:128-f80:128-n8:16:32:64-S128"
target triple = "x86_64-pc-linux-gnu"

%struct.ParallelApplyWorkerShared = type { i8, i32, i32, i16, i32, %struct.pg_atomic_uint32, i64, i32, %struct.FileSet }
%struct.pg_atomic_uint32 = type { i32 }
%struct.FileSet = type { i32, i32, i32, [8 x i32] }
%struct.LogicalRepWorker = type { i32, i64, i8, i16, ptr, i32, i32, i32, i32, i8, i64, i8, ptr, i32, i8, i64, i64, i64, i64, i64 }
%struct.Subscription = type { i32, i32, i64, ptr, i32, i8, i8, i8, i8, i8, i8, i8, i8, i8, ptr, ptr, ptr, ptr, ptr }
%struct.List = type { i32, i32, i32, ptr, [0 x %union.ListCell] }
%union.ListCell = type { ptr }
%struct.LogicalRepStreamAbortData = type { i32, i32, i64, i64 }

@MyParallelShared = dso_local global ptr null, align 8
@.str.2 = private unnamed_addr constant [22 x i8] c"applyparallelworker.c\00", align 1
@MyLogicalRepWorker = external global ptr, align 8
@MySubscription = external global ptr, align 8
@__func__.pa_set_xact_state = private unnamed_addr constant [18 x i8] c"pa_set_xact_state\00", align 1
@subxactlist = internal global ptr null, align 8
@replorigin_session_origin_lsn = external global i64, align 8
@replorigin_session_origin_timestamp = external global i64, align 8
@.str.10 = private unnamed_addr constant [74 x i8] c"rolling back to savepoint %s in logical replication parallel apply worker\00", align 1
@__func__.pa_stream_abort = private unnamed_addr constant [16 x i8] c"pa_stream_abort\00", align 1
@.str.22 = private unnamed_addr constant [12 x i8] c"pg_sp_%u_%u\00", align 1

; Function Attrs: inlinehint nounwind uwtable
define internal i32 @tas(ptr noundef %0) #5 {
  %2 = alloca ptr, align 8
  %3 = alloca i8, align 1
  store ptr %0, ptr %2, align 8
  call void @llvm.lifetime.start.p0(i64 1, ptr %3) #9
  store i8 1, ptr %3, align 1
  %4 = load i8, ptr %3, align 1
  %5 = load ptr, ptr %2, align 8
  %6 = call i8 asm sideeffect "\09lock\09\09\09\0A\09xchgb\09$0,$1\09\0A", "=q,=*m,0,*m,~{memory},~{cc},~{dirflag},~{fpsr},~{flags}"(ptr elementtype(i8) %5, i8 %4, ptr elementtype(i8) %5) #9, !srcloc !10
  store i8 %6, ptr %3, align 1
  %7 = load i8, ptr %3, align 1
  %8 = zext i8 %7 to i32
  call void @llvm.lifetime.end.p0(i64 1, ptr %3) #9
  ret i32 %8
}

; Function Attrs: inlinehint nounwind uwtable
define internal ptr @list_nth_cell(ptr noundef %0, i32 noundef %1) #5 {
  %3 = alloca ptr, align 8
  %4 = alloca i32, align 4
  store ptr %0, ptr %3, align 8
  store i32 %1, ptr %4, align 4
  %5 = load ptr, ptr %3, align 8
  %6 = getelementptr inbounds nuw %struct.List, ptr %5, i32 0, i32 3
  %7 = load ptr, ptr %6, align 8
  %8 = load i32, ptr %4, align 4
  %9 = sext i32 %8 to i64
  %10 = getelementptr inbounds %union.ListCell, ptr %7, i64 %9
  ret ptr %10
}

; Function Attrs: inlinehint nounwind uwtable
define internal i32 @list_length(ptr noundef %0) #5 {
  %2 = alloca ptr, align 8
  store ptr %0, ptr %2, align 8
  %3 = load ptr, ptr %2, align 8
  %4 = icmp ne ptr %3, null
  br i1 %4, label %5, label %9

5:                                                ; preds = %1
  %6 = load ptr, ptr %2, align 8
  %7 = getelementptr inbounds nuw %struct.List, ptr %6, i32 0, i32 1
  %8 = load i32, ptr %7, align 4
  br label %10

9:                                                ; preds = %1
  br label %10

10:                                               ; preds = %9, %5
  %11 = phi i32 [ %8, %5 ], [ 0, %9 ]
  ret i32 %11
}

; Function Attrs: nounwind uwtable
define internal void @pa_savepoint_name(i32 noundef %0, i32 noundef %1, ptr noundef %2, i64 noundef %3) #0 {
  %5 = alloca i32, align 4
  %6 = alloca i32, align 4
  %7 = alloca ptr, align 8
  %8 = alloca i64, align 8
  store i32 %0, ptr %5, align 4
  store i32 %1, ptr %6, align 4
  store ptr %2, ptr %7, align 8
  store i64 %3, ptr %8, align 8
  %9 = load ptr, ptr %7, align 8
  %10 = load i64, ptr %8, align 8
  %11 = load i32, ptr %5, align 4
  %12 = load i32, ptr %6, align 4
  %13 = call i32 (ptr, i64, ptr, ...) @pg_snprintf(ptr noundef %9, i64 noundef %10, ptr noundef @.str.22, i32 noundef %11, i32 noundef %12)
  ret void
}

; Function Attrs: nounwind uwtable
define dso_local void @pa_reset_subtrans() #0 {
  store ptr null, ptr @subxactlist, align 8
  ret void
}

; Function Attrs: nounwind uwtable
define dso_local void @pa_unlock_transaction(i32 noundef %0, i32 noundef %1) #0 {
  %3 = alloca i32, align 4
  %4 = alloca i32, align 4
  store i32 %0, ptr %3, align 4
  store i32 %1, ptr %4, align 4
  %5 = load ptr, ptr @MyLogicalRepWorker, align 8
  %6 = getelementptr inbounds nuw %struct.LogicalRepWorker, ptr %5, i32 0, i32 7
  %7 = load i32, ptr %6, align 8
  %8 = load i32, ptr %3, align 4
  %9 = load i32, ptr %4, align 4
  call void @UnlockApplyTransactionForSession(i32 noundef %7, i32 noundef %8, i16 noundef zeroext 1, i32 noundef %9)
  ret void
}

; Function Attrs: nounwind uwtable
define dso_local void @pa_set_xact_state(ptr noundef %0, i32 noundef %1) #0 {
  %3 = alloca ptr, align 8
  %4 = alloca i32, align 4
  store ptr %0, ptr %3, align 8
  store i32 %1, ptr %4, align 4
  %5 = load ptr, ptr %3, align 8
  %6 = getelementptr inbounds nuw %struct.ParallelApplyWorkerShared, ptr %5, i32 0, i32 0
  %7 = call i32 @tas(ptr noundef %6)
  %8 = icmp ne i32 %7, 0
  br i1 %8, label %9, label %13

9:                                                ; preds = %2
  %10 = load ptr, ptr %3, align 8
  %11 = getelementptr inbounds nuw %struct.ParallelApplyWorkerShared, ptr %10, i32 0, i32 0
  %12 = call i32 @s_lock(ptr noundef %11, ptr noundef @.str.2, i32 noundef 1310, ptr noundef @__func__.pa_set_xact_state)
  br label %14

13:                                               ; preds = %2
  br label %14

14:                                               ; preds = %13, %9
  %15 = load i32, ptr %4, align 4
  %16 = load ptr, ptr %3, align 8
  %17 = getelementptr inbounds nuw %struct.ParallelApplyWorkerShared, ptr %16, i32 0, i32 2
  store i32 %15, ptr %17, align 8
  br label %18

18:                                               ; preds = %14
  call void asm sideeffect "", "~{memory},~{dirflag},~{fpsr},~{flags}"() #9, !srcloc !15
  %19 = load ptr, ptr %3, align 8
  %20 = getelementptr inbounds nuw %struct.ParallelApplyWorkerShared, ptr %19, i32 0, i32 0
  store i8 0, ptr %20, align 8
  br label %21

21:                                               ; preds = %18
  ret void
}

; Function Attrs: nounwind uwtable
define dso_local void @pa_stream_abort(ptr noundef %0) #0 {
  %2 = alloca ptr, align 8
  %3 = alloca i32, align 4
  %4 = alloca i32, align 4
  %5 = alloca i32, align 4
  %6 = alloca [64 x i8], align 16
  %7 = alloca i32, align 4
  %8 = alloca i32, align 4
  store ptr %0, ptr %2, align 8
  call void @llvm.lifetime.start.p0(i64 4, ptr %3) #9
  %9 = load ptr, ptr %2, align 8
  %10 = getelementptr inbounds nuw %struct.LogicalRepStreamAbortData, ptr %9, i32 0, i32 0
  %11 = load i32, ptr %10, align 8
  store i32 %11, ptr %3, align 4
  call void @llvm.lifetime.start.p0(i64 4, ptr %4) #9
  %12 = load ptr, ptr %2, align 8
  %13 = getelementptr inbounds nuw %struct.LogicalRepStreamAbortData, ptr %12, i32 0, i32 1
  %14 = load i32, ptr %13, align 4
  store i32 %14, ptr %4, align 4
  %15 = load ptr, ptr %2, align 8
  %16 = getelementptr inbounds nuw %struct.LogicalRepStreamAbortData, ptr %15, i32 0, i32 2
  %17 = load i64, ptr %16, align 8
  store i64 %17, ptr @replorigin_session_origin_lsn, align 8
  %18 = load ptr, ptr %2, align 8
  %19 = getelementptr inbounds nuw %struct.LogicalRepStreamAbortData, ptr %18, i32 0, i32 3
  %20 = load i64, ptr %19, align 8
  store i64 %20, ptr @replorigin_session_origin_timestamp, align 8
  %21 = load i32, ptr %4, align 4
  %22 = load i32, ptr %3, align 4
  %23 = icmp eq i32 %21, %22
  br i1 %23, label %24, label %31

24:                                               ; preds = %1
  %25 = load ptr, ptr @MyParallelShared, align 8
  call void @pa_set_xact_state(ptr noundef %25, i32 noundef 2)
  %26 = load i32, ptr %3, align 4
  call void @pa_unlock_transaction(i32 noundef %26, i32 noundef 8)
  call void @AbortCurrentTransaction()
  %27 = call zeroext i1 @IsTransactionBlock()
  br i1 %27, label %28, label %30

28:                                               ; preds = %24
  %29 = call zeroext i1 @EndTransactionBlock(i1 noundef zeroext false)
  call void @CommitTransactionCommand()
  br label %30

30:                                               ; preds = %28, %24
  call void @pa_reset_subtrans()
  call void @pgstat_report_activity(i32 noundef 1, ptr noundef null)
  br label %75

31:                                               ; preds = %1
  call void @llvm.lifetime.start.p0(i64 4, ptr %5) #9
  call void @llvm.lifetime.start.p0(i64 64, ptr %6) #9
  %32 = load ptr, ptr @MySubscription, align 8
  %33 = getelementptr inbounds nuw %struct.Subscription, ptr %32, i32 0, i32 0
  %34 = load i32, ptr %33, align 8
  %35 = load i32, ptr %4, align 4
  %36 = getelementptr inbounds [64 x i8], ptr %6, i64 0, i64 0
  call void @pa_savepoint_name(i32 noundef %34, i32 noundef %35, ptr noundef %36, i64 noundef 64)
  br label %37

37:                                               ; preds = %31
  br i1 false, label %38, label %40

38:                                               ; preds = %37
  %39 = call zeroext i1 @errstart_cold(i32 noundef 14, ptr noundef null) #10
  br i1 %39, label %42, label %45

40:                                               ; preds = %37
  %41 = call zeroext i1 @errstart(i32 noundef 14, ptr noundef null)
  br i1 %41, label %42, label %45

42:                                               ; preds = %40, %38
  %43 = getelementptr inbounds [64 x i8], ptr %6, i64 0, i64 0
  %44 = call i32 (ptr, ...) @errmsg_internal(ptr noundef @.str.10, ptr noundef %43)
  call void @errfinish(ptr noundef @.str.2, i32 noundef 1468, ptr noundef @__func__.pa_stream_abort)
  br label %45

45:                                               ; preds = %42, %40, %38
  br label %46

46:                                               ; preds = %45
  br label %47

47:                                               ; preds = %46
  %48 = load ptr, ptr @subxactlist, align 8
  %49 = call i32 @list_length(ptr noundef %48)
  %50 = sub i32 %49, 1
  store i32 %50, ptr %5, align 4
  br label %51

51:                                               ; preds = %71, %47
  %52 = load i32, ptr %5, align 4
  %53 = icmp sge i32 %52, 0
  br i1 %53, label %54, label %74

54:                                               ; preds = %51
  call void @llvm.lifetime.start.p0(i64 4, ptr %7) #9
  %55 = load ptr, ptr @subxactlist, align 8
  %56 = load i32, ptr %5, align 4
  %57 = call ptr @list_nth_cell(ptr noundef %55, i32 noundef %56)
  %58 = load i32, ptr %57, align 8
  store i32 %58, ptr %7, align 4
  %59 = load i32, ptr %7, align 4
  %60 = load i32, ptr %4, align 4
  %61 = icmp eq i32 %59, %60
  br i1 %61, label %62, label %67

62:                                               ; preds = %54
  %63 = getelementptr inbounds [64 x i8], ptr %6, i64 0, i64 0
  call void @RollbackToSavepoint(ptr noundef %63)
  call void @CommitTransactionCommand()
  %64 = load ptr, ptr @subxactlist, align 8
  %65 = load i32, ptr %5, align 4
  %66 = call ptr @list_truncate(ptr noundef %64, i32 noundef %65)
  store ptr %66, ptr @subxactlist, align 8
  store i32 4, ptr %8, align 4
  br label %68

67:                                               ; preds = %54
  store i32 0, ptr %8, align 4
  br label %68

68:                                               ; preds = %67, %62
  call void @llvm.lifetime.end.p0(i64 4, ptr %7) #9
  %69 = load i32, ptr %8, align 4
  switch i32 %69, label %76 [
    i32 0, label %70
    i32 4, label %74
  ]

70:                                               ; preds = %68
  br label %71

71:                                               ; preds = %70
  %72 = load i32, ptr %5, align 4
  %73 = add i32 %72, -1
  store i32 %73, ptr %5, align 4
  br label %51, !llvm.loop !16

74:                                               ; preds = %68, %51
  call void @llvm.lifetime.end.p0(i64 64, ptr %6) #9
  call void @llvm.lifetime.end.p0(i64 4, ptr %5) #9
  br label %75

75:                                               ; preds = %74, %30
  call void @llvm.lifetime.end.p0(i64 4, ptr %4) #9
  call void @llvm.lifetime.end.p0(i64 4, ptr %3) #9
  ret void

76:                                               ; preds = %68
  unreachable
}