; Function Attrs: nounwind uwtable
define dso_local void @pa_stream_abort(ptr noundef readonly captures(none) %0) local_unnamed_addr #0 {
  %2 = alloca [64 x i8], align 16
  %3 = load i32, ptr %0, align 8
  %4 = getelementptr inbounds nuw i8, ptr %0, i64 4
  %5 = load i32, ptr %4, align 4
  %6 = getelementptr inbounds nuw i8, ptr %0, i64 8
  %7 = load i64, ptr %6, align 8
  store i64 %7, ptr @replorigin_session_origin_lsn, align 8
  %8 = getelementptr inbounds nuw i8, ptr %0, i64 16
  %9 = load i64, ptr %8, align 8
  store i64 %9, ptr @replorigin_session_origin_timestamp, align 8
  %10 = icmp eq i32 %5, %3
  br i1 %10, label %11, label %24

11:                                               ; preds = %1
  %12 = load ptr, ptr @MyParallelShared, align 8
  %13 = tail call i8 asm sideeffect "\09lock\09\09\09\0A\09xchgb\09$0,$1\09\0A", "=q,=*m,0,*m,~{memory},~{cc},~{dirflag},~{fpsr},~{flags}"(ptr elementtype(i8) %12, i8 1, ptr elementtype(i8) %12) #10, !srcloc !7
  %.not.i = icmp eq i8 %13, 0
  br i1 %.not.i, label %pa_set_xact_state.exit, label %14

14:                                               ; preds = %11
  %15 = tail call i32 @s_lock(ptr noundef %12, ptr noundef nonnull @.str.2, i32 noundef 1310, ptr noundef nonnull @__func__.pa_set_xact_state) #10
  br label %pa_set_xact_state.exit

pa_set_xact_state.exit:                           ; preds = %11, %14
  %16 = getelementptr inbounds nuw i8, ptr %12, i64 8
  store i32 2, ptr %16, align 8
  tail call void asm sideeffect "", "~{memory},~{dirflag},~{fpsr},~{flags}"() #10, !srcloc !14
  store i8 0, ptr %12, align 8
  %17 = load ptr, ptr @MyLogicalRepWorker, align 8
  %18 = getelementptr inbounds nuw i8, ptr %17, i64 40
  %19 = load i32, ptr %18, align 8
  tail call void @UnlockApplyTransactionForSession(i32 noundef %19, i32 noundef %3, i16 noundef zeroext 1, i32 noundef 8) #10
  tail call void @AbortCurrentTransaction() #10
  %20 = tail call zeroext i1 @IsTransactionBlock() #10
  br i1 %20, label %21, label %23

21:                                               ; preds = %pa_set_xact_state.exit
  %22 = tail call zeroext i1 @EndTransactionBlock(i1 noundef zeroext false) #10
  tail call void @CommitTransactionCommand() #10
  br label %23

23:                                               ; preds = %21, %pa_set_xact_state.exit
  store ptr null, ptr @subxactlist, align 8
  tail call void @pgstat_report_activity(i32 noundef 1, ptr noundef null) #10
  br label %48

24:                                               ; preds = %1
  call void @llvm.lifetime.start.p0(i64 64, ptr nonnull %2) #10
  %25 = load ptr, ptr @MySubscription, align 8
  %26 = load i32, ptr %25, align 8
  %27 = call i32 (ptr, i64, ptr, ...) @pg_snprintf(ptr noundef nonnull %2, i64 noundef 64, ptr noundef nonnull @.str.22, i32 noundef %26, i32 noundef %5) #10
  %28 = call zeroext i1 @errstart(i32 noundef 14, ptr noundef null) #10
  br i1 %28, label %29, label %31

29:                                               ; preds = %24
  %30 = call i32 (ptr, ...) @errmsg_internal(ptr noundef nonnull @.str.10, ptr noundef nonnull %2) #10
  call void @errfinish(ptr noundef nonnull @.str.2, i32 noundef 1468, ptr noundef nonnull @__func__.pa_stream_abort) #10
  br label %31

31:                                               ; preds = %29, %24
  %32 = load ptr, ptr @subxactlist, align 8
  %.not.i17 = icmp eq ptr %32, null
  br i1 %.not.i17, label %list_length.exit, label %33

33:                                               ; preds = %31
  %34 = getelementptr inbounds nuw i8, ptr %32, i64 4
  %35 = load i32, ptr %34, align 4
  %36 = zext i32 %35 to i64
  br label %list_length.exit

list_length.exit:                                 ; preds = %31, %33
  %37 = phi i64 [ %36, %33 ], [ 0, %31 ]
  %38 = getelementptr i8, ptr %32, i64 16
  br label %39

39:                                               ; preds = %41, %list_length.exit
  %indvars.iv = phi i64 [ %indvars.iv.next, %41 ], [ %37, %list_length.exit ]
  %indvars.iv.next = add nsw i64 %indvars.iv, -1
  %indvars = trunc i64 %indvars.iv.next to i32
  %40 = icmp sgt i32 %indvars, -1
  br i1 %40, label %41, label %.loopexit

41:                                               ; preds = %39
  %.val = load ptr, ptr %38, align 8
  %42 = and i64 %indvars.iv.next, 2147483647
  %43 = getelementptr inbounds nuw %union.ListCell, ptr %.val, i64 %42
  %44 = load i32, ptr %43, align 8
  %45 = icmp eq i32 %44, %5
  br i1 %45, label %.thread, label %39, !llvm.loop !15

.thread:                                          ; preds = %41
  call void @RollbackToSavepoint(ptr noundef nonnull %2) #10
  call void @CommitTransactionCommand() #10
  %46 = load ptr, ptr @subxactlist, align 8
  %47 = call ptr @list_truncate(ptr noundef %46, i32 noundef %indvars) #10
  store ptr %47, ptr @subxactlist, align 8
  br label %.loopexit

.loopexit:                                        ; preds = %39, %.thread
  call void @llvm.lifetime.end.p0(i64 64, ptr nonnull %2) #10
  br label %48

48:                                               ; preds = %.loopexit, %23
  ret void
}